; Function Attrs: mustprogress nounwind uwtable
define dso_local void @_ZN6FileIOD0Ev(ptr noundef nonnull align 8 dereferenceable(20) %0) unnamed_addr #10 align 2 personality ptr @__gxx_personality_v0 {
  store ptr getelementptr inbounds ({ [8 x ptr] }, ptr @_ZTV6FileIO, i64 0, i32 0, i64 2), ptr %0, align 8
  %2 = getelementptr inbounds i8, ptr %0, i64 8
  %3 = load ptr, ptr %2, align 8
  %.not.i = icmp eq ptr %3, null
  br i1 %.not.i, label %_ZN6FileIOD2Ev.exit, label %4

4:                                                ; preds = %1
  %5 = tail call i32 @fclose(ptr noundef nonnull %3)
  br label %_ZN6FileIOD2Ev.exit

_ZN6FileIOD2Ev.exit:                              ; preds = %1, %4
  tail call void @_ZN8duFileIOD2Ev(ptr noundef nonnull align 8 dereferenceable(8) %0) #17
  tail call void @_ZdlPv(ptr noundef nonnull %0) #19
  ret void
}